; Function Attrs: mustprogress uwtable
define internal void @"_ZN4absl12lts_2023080219functional_internal12InvokeObjectIZN9grpc_core12_GLOBAL__N_114EndpointsEqualENS0_8StatusOrISt10shared_ptrINS3_25EndpointAddressesIteratorEEEES9_E3$_0vJRKNS3_17EndpointAddressesEEEET0_NS1_7VoidPtrEDpNS1_8ForwardTIT1_E4typeE"(ptr nocapture readonly %ptr.coerce, ptr noundef nonnull align 8 dereferenceable(32) %args) #3 {
entry:
  %ptr.coerce.val = load ptr, ptr %ptr.coerce, align 8
  %_M_finish.i.i.i.i.i = getelementptr inbounds i8, ptr %ptr.coerce.val, i64 8
  %0 = load ptr, ptr %_M_finish.i.i.i.i.i, align 8
  %_M_end_of_storage.i.i.i.i.i = getelementptr inbounds i8, ptr %ptr.coerce.val, i64 16
  %1 = load ptr, ptr %_M_end_of_storage.i.i.i.i.i, align 8
  %cmp.not.i.i.i.i.i = icmp eq ptr %0, %1
  br i1 %cmp.not.i.i.i.i.i, label %if.else.i.i.i.i.i, label %if.then.i.i.i.i.i

if.then.i.i.i.i.i:                                ; preds = %entry
  tail call void @_ZN9grpc_core17EndpointAddressesC1ERKS0_(ptr noundef nonnull align 8 dereferenceable(32) %0, ptr noundef nonnull align 8 dereferenceable(32) %args)
  %2 = load ptr, ptr %_M_finish.i.i.i.i.i, align 8
  %incdec.ptr.i.i.i.i.i = getelementptr inbounds i8, ptr %2, i64 32
  store ptr %incdec.ptr.i.i.i.i.i, ptr %_M_finish.i.i.i.i.i, align 8
  br label %"_ZSt6invokeIRKZN9grpc_core12_GLOBAL__N_114EndpointsEqualEN4absl12lts_202308028StatusOrISt10shared_ptrINS0_25EndpointAddressesIteratorEEEES8_E3$_0JRKNS0_17EndpointAddressesEEENSt13invoke_resultIT_JDpT0_EE4typeEOSG_DpOSH_.exit"

if.else.i.i.i.i.i:                                ; preds = %entry
  tail call void @_ZNSt6vectorIN9grpc_core17EndpointAddressesESaIS1_EE17_M_realloc_insertIJRKS1_EEEvN9__gnu_cxx17__normal_iteratorIPS1_S3_EEDpOT_(ptr noundef nonnull align 8 dereferenceable(24) %ptr.coerce.val, ptr %0, ptr noundef nonnull align 8 dereferenceable(32) %args)
  br label %"_ZSt6invokeIRKZN9grpc_core12_GLOBAL__N_114EndpointsEqualEN4absl12lts_202308028StatusOrISt10shared_ptrINS0_25EndpointAddressesIteratorEEEES8_E3$_0JRKNS0_17EndpointAddressesEEENSt13invoke_resultIT_JDpT0_EE4typeEOSG_DpOSH_.exit"

"_ZSt6invokeIRKZN9grpc_core12_GLOBAL__N_114EndpointsEqualEN4absl12lts_202308028StatusOrISt10shared_ptrINS0_25EndpointAddressesIteratorEEEES8_E3$_0JRKNS0_17EndpointAddressesEEENSt13invoke_resultIT_JDpT0_EE4typeEOSG_DpOSH_.exit": ; preds = %if.then.i.i.i.i.i, %if.else.i.i.i.i.i
  ret void
}